; Function Attrs: nounwind uwtable
define dso_local void @AlterSubscriptionOwner_oid(i32 noundef %0, i32 noundef %1) local_unnamed_addr #0 {
  %3 = tail call ptr @table_open(i32 noundef 6100, i32 noundef 3) #10
  %4 = zext i32 %0 to i64
  %5 = tail call ptr @SearchSysCacheCopy(i32 noundef 67, i64 noundef %4, i64 noundef 0, i64 noundef 0, i64 noundef 0) #10
  %.not = icmp eq ptr %5, null
  br i1 %.not, label %6, label %10

6:                                                ; preds = %2
  %7 = tail call zeroext i1 @errstart_cold(i32 noundef 21, ptr noundef null) #11
  tail call void @llvm.assume(i1 %7)
  %8 = tail call i32 @errcode(i32 noundef 67137668) #10
  %9 = tail call i32 (ptr, ...) @errmsg(ptr noundef nonnull @.str.47, i32 noundef %0) #10
  tail call void @errfinish(ptr noundef nonnull @.str.4, i32 noundef 2076, ptr noundef nonnull @__func__.AlterSubscriptionOwner_oid) #10
  unreachable

10:                                               ; preds = %2
  tail call fastcc void @AlterSubscriptionOwner_internal(ptr noundef %3, ptr noundef %5, i32 noundef %1)
  tail call void @heap_freetuple(ptr noundef nonnull %5) #10
  tail call void @table_close(ptr noundef %3, i32 noundef 3) #10
  ret void
}